; Function Attrs: mustprogress uwtable
define void @_ZN5ImGui10EndTabItemEv() local_unnamed_addr #6 {
  %1 = load ptr, ptr @GImGui, align 8, !tbaa !3
  %2 = getelementptr inbounds nuw i8, ptr %1, i64 5016
  %3 = load ptr, ptr %2, align 8, !tbaa !8
  %4 = getelementptr inbounds nuw i8, ptr %3, i64 207
  %5 = load i8, ptr %4, align 1, !tbaa !152, !range !153, !noundef !154
  %6 = trunc nuw i8 %5 to i1
  br i1 %6, label %23, label %7

7:                                                ; preds = %0
  %8 = getelementptr inbounds nuw i8, ptr %1, i64 8744
  %9 = load ptr, ptr %8, align 8, !tbaa !753
  %10 = icmp eq ptr %9, null
  br i1 %10, label %11, label %13

11:                                               ; preds = %7
  %12 = tail call noundef zeroext i1 @_ZN5ImGui8ErrorLogEPKc(ptr noundef nonnull @.str.128)
  br label %23

13:                                               ; preds = %7
  %14 = getelementptr inbounds nuw i8, ptr %9, i64 128
  %15 = load i16, ptr %14, align 8, !tbaa !737
  %16 = getelementptr inbounds nuw i8, ptr %9, i64 16
  %17 = load ptr, ptr %16, align 8, !tbaa !773
  %18 = sext i16 %15 to i64
  %19 = getelementptr inbounds %struct.ImGuiTabItem, ptr %17, i64 %18, i32 1
  %20 = load i32, ptr %19, align 4, !tbaa !781
  %21 = and i32 %20, 8
  %.not = icmp eq i32 %21, 0
  br i1 %.not, label %22, label %23

22:                                               ; preds = %13
  tail call void @_ZN5ImGui5PopIDEv()
  br label %23

23:                                               ; preds = %11, %22, %13, %0
  ret void
}